#include <math.h>
#include <stdio.h>
#include <stdlib.h>
#include <string.h>
#include <iostream>
using namespace std;

int main()
{
 int n,i,j,flag,a[20001];
	cin>>n;
	cin>>a[1];
	cout<<a[1];
      for(i=2;i<=n;i++)//???????????2?n????????????
		{flag=0;//??????flag???0????????a[i]??????flag??0
		   cin>>a[i];//??
	         for(j=1;j<i;j++)
			   {if(a[j]==a[i]) flag=1;}//????a[i]?????????flag???1
			 if(flag==0) cout<<" "<<a[i];//?flag?0???????????a[i]???????a[i]
		}
	  
	  return 0;
}